; Function Attrs: mustprogress nounwind uwtable
define void @_ZN7glslang13TIntermBranch15updatePrecisionENS_19TPrecisionQualifierE(ptr nocapture noundef nonnull readonly align 8 dereferenceable(48) %0, i32 noundef %1) local_unnamed_addr #0 align 2 {
  %3 = getelementptr inbounds i8, ptr %0, i64 40
  %4 = load ptr, ptr %3, align 8
  %5 = icmp eq ptr %4, null
  br i1 %5, label %39, label %6

6:                                                ; preds = %2
  %7 = load ptr, ptr %4, align 8
  %8 = getelementptr inbounds i8, ptr %7, i64 256
  %9 = load ptr, ptr %8, align 8
  %10 = tail call noundef i32 %9(ptr noundef nonnull align 8 dereferenceable(184) %4) #17
  %11 = icmp eq i32 %10, 8
  br i1 %11, label %25, label %12

12:                                               ; preds = %6
  %13 = load ptr, ptr %4, align 8
  %14 = getelementptr inbounds i8, ptr %13, i64 256
  %15 = load ptr, ptr %14, align 8
  %16 = tail call noundef i32 %15(ptr noundef nonnull align 8 dereferenceable(184) %4) #17
  %17 = icmp eq i32 %16, 9
  br i1 %17, label %25, label %18

18:                                               ; preds = %12
  %19 = load ptr, ptr %4, align 8
  %20 = getelementptr inbounds i8, ptr %19, i64 256
  %21 = load ptr, ptr %20, align 8
  %22 = tail call noundef i32 %21(ptr noundef nonnull align 8 dereferenceable(184) %4) #17
  %23 = icmp eq i32 %22, 1
  %24 = icmp ne i32 %1, 0
  %or.cond = and i1 %24, %23
  br i1 %or.cond, label %26, label %39

25:                                               ; preds = %12, %6
  %.old1.not = icmp eq i32 %1, 0
  br i1 %.old1.not, label %39, label %26

26:                                               ; preds = %18, %25
  %27 = load ptr, ptr %4, align 8
  %28 = getelementptr inbounds i8, ptr %27, i64 264
  %29 = load ptr, ptr %28, align 8
  %30 = tail call noundef nonnull align 8 dereferenceable(80) ptr %29(ptr noundef nonnull align 8 dereferenceable(184) %4) #17
  %31 = getelementptr inbounds i8, ptr %30, i64 8
  %32 = load i64, ptr %31, align 8
  %33 = and i64 %32, 234881024
  %34 = icmp eq i64 %33, 0
  br i1 %34, label %35, label %39

35:                                               ; preds = %26
  %36 = load ptr, ptr %4, align 8
  %37 = getelementptr inbounds i8, ptr %36, i64 296
  %38 = load ptr, ptr %37, align 8
  tail call void %38(ptr noundef nonnull align 8 dereferenceable(184) %4, i32 noundef %1) #17
  br label %39

39:                                               ; preds = %25, %26, %35, %2, %18
  ret void
}